; Function Attrs: null_pointer_is_valid sspstrong uwtable
define noundef zeroext i1 @http2_get_stream_id_ge(i32 noundef %0, i32 noundef %1, ptr noundef writeonly captures(none) %2) local_unnamed_addr #1 {
  %4 = load ptr, ptr @streamid_hash, align 8
  %5 = zext i32 %0 to i64
  %6 = inttoptr i64 %5 to ptr
  %7 = tail call ptr @g_hash_table_lookup(ptr noundef %4, ptr noundef %6)
  %.not.i = icmp eq ptr %7, null
  br i1 %.not.i, label %get_http2_stream_count.exit, label %8

8:                                                ; preds = %3
  %9 = tail call ptr @g_hash_table_get_keys(ptr noundef nonnull %7)
  %.not1415.i = icmp eq ptr %9, null
  br i1 %.not1415.i, label %._crit_edge.i, label %.lr.ph.i

.lr.ph.i:                                         ; preds = %8, %.lr.ph.i
  %.017.i = phi ptr [ %15, %.lr.ph.i ], [ %9, %8 ]
  %.116.i = phi i32 [ %13, %.lr.ph.i ], [ 0, %8 ]
  %10 = load ptr, ptr %.017.i, align 8
  %11 = ptrtoint ptr %10 to i64
  %12 = trunc i64 %11 to i32
  %13 = tail call i32 @llvm.umax.i32(i32 %.116.i, i32 %12)
  %14 = getelementptr inbounds nuw i8, ptr %.017.i, i64 8
  %15 = load ptr, ptr %14, align 8
  %.not14.i = icmp eq ptr %15, null
  br i1 %.not14.i, label %._crit_edge.i, label %.lr.ph.i, !llvm.loop !6

._crit_edge.i:                                    ; preds = %.lr.ph.i, %8
  %.1.lcssa.i = phi i32 [ 0, %8 ], [ %13, %.lr.ph.i ]
  tail call void @g_list_free(ptr noundef %9)
  br label %get_http2_stream_count.exit

get_http2_stream_count.exit:                      ; preds = %3, %._crit_edge.i
  %.012.i = phi i32 [ %.1.lcssa.i, %._crit_edge.i ], [ 0, %3 ]
  %16 = and i32 %1, 2147483647
  %.not17.not = icmp sgt i32 %16, %.012.i
  br i1 %.not17.not, label %.critedge, label %.lr.ph

.lr.ph:                                           ; preds = %get_http2_stream_count.exit, %is_http2_stream_contains.exit.thread
  %.01018 = phi i32 [ %24, %is_http2_stream_contains.exit.thread ], [ %16, %get_http2_stream_count.exit ]
  %17 = load ptr, ptr @streamid_hash, align 8
  %18 = tail call ptr @g_hash_table_lookup(ptr noundef %17, ptr noundef %6)
  %19 = icmp eq ptr %18, null
  br i1 %19, label %is_http2_stream_contains.exit.thread, label %is_http2_stream_contains.exit

is_http2_stream_contains.exit:                    ; preds = %.lr.ph
  %20 = sext i32 %.01018 to i64
  %21 = inttoptr i64 %20 to ptr
  %22 = tail call i32 @g_hash_table_contains(ptr noundef nonnull %18, ptr noundef %21)
  %.not.i12.not = icmp eq i32 %22, 0
  br i1 %.not.i12.not, label %is_http2_stream_contains.exit.thread, label %23

23:                                               ; preds = %is_http2_stream_contains.exit
  store i32 %.01018, ptr %2, align 4
  br label %.critedge

is_http2_stream_contains.exit.thread:             ; preds = %.lr.ph, %is_http2_stream_contains.exit
  %24 = add i32 %.01018, 1
  %.not.not = icmp sgt i32 %24, %.012.i
  br i1 %.not.not, label %.critedge, label %.lr.ph, !llvm.loop !9

.critedge:                                        ; preds = %is_http2_stream_contains.exit.thread, %get_http2_stream_count.exit, %23
  %.not15 = phi i1 [ true, %23 ], [ false, %get_http2_stream_count.exit ], [ false, %is_http2_stream_contains.exit.thread ]
  ret i1 %.not15
}